target datalayout = "e-m:e-p270:32:32-p271:32:32-p272:64:64-i64:64-i128:128-f80:128-n8:16:32:64-S128"
target triple = "x86_64-pc-linux-gnu"

%struct.FT_Vector_ = type { i64, i64 }
%struct.CF2_Matrix_ = type { i32, i32, i32, i32, i32, i32 }
%struct.CF2_FontRec_ = type { ptr, i32, i8, i8, i32, %struct.CF2_Matrix_, %struct.CF2_Matrix_, %struct.CF2_Matrix_, i32, %struct.CFF_BlendRec_, i32, i32, ptr, i32, i32, i32, %struct.CF2_OutlineRec_, ptr, ptr, i8, i8, i8, [8 x i32], i32, i32, i32, i32, i8, %struct.CF2_BluesRec_, ptr }
%struct.CFF_BlendRec_ = type { i8, i8, ptr, i32, i32, ptr, i32, ptr }
%struct.CF2_OutlineRec_ = type { %struct.CF2_OutlineCallbacksRec_, ptr }
%struct.CF2_OutlineCallbacksRec_ = type { ptr, ptr, ptr, ptr, i32, ptr, ptr }
%struct.CF2_BluesRec_ = type { i32, i32, i8, i8, i32, i32, i32, i32, %struct.CF2_HintRec_, %struct.CF2_HintRec_, [12 x %struct.CF2_BlueRec_] }
%struct.CF2_HintRec_ = type { i32, i64, i32, i32, i32 }
%struct.CF2_BlueRec_ = type { i32, i32, i32, i32, i8 }
%struct.CF2_ArrStackRec_ = type { ptr, ptr, i64, i64, i64, i64, ptr }
%struct.CF2_GlyphPathRec_ = type { ptr, ptr, %struct.CF2_HintMapRec_, %struct.CF2_HintMapRec_, %struct.CF2_HintMapRec_, %struct.CF2_ArrStackRec_, i32, i32, i32, %struct.FT_Vector_, i8, i8, i8, i8, ptr, ptr, ptr, i32, ptr, i32, i32, i32, i32, %struct.FT_Vector_, %struct.FT_Vector_, %struct.FT_Vector_, %struct.FT_Vector_, %struct.FT_Vector_, i8, i32, %struct.FT_Vector_, %struct.FT_Vector_, %struct.FT_Vector_, %struct.FT_Vector_ }
%struct.CF2_HintMapRec_ = type { ptr, ptr, ptr, i8, i8, i32, i32, i32, [192 x %struct.CF2_HintRec_] }

; Function Attrs: nounwind uwtable
define internal i32 @FT_MulFix_x86_64(i32 noundef %0, i32 noundef %1) #0 {
  %3 = alloca i32, align 4
  %4 = alloca i32, align 4
  %5 = alloca i64, align 8
  %6 = alloca i64, align 8
  store i32 %0, ptr %3, align 4
  store i32 %1, ptr %4, align 4
  %7 = load i32, ptr %3, align 4
  %8 = sext i32 %7 to i64
  %9 = load i32, ptr %4, align 4
  %10 = sext i32 %9 to i64
  %11 = mul nsw i64 %8, %10
  store i64 %11, ptr %5, align 8
  %12 = load i64, ptr %5, align 8
  %13 = ashr i64 %12, 63
  store i64 %13, ptr %6, align 8
  %14 = load i64, ptr %6, align 8
  %15 = add nsw i64 32768, %14
  %16 = load i64, ptr %5, align 8
  %17 = add nsw i64 %16, %15
  store i64 %17, ptr %5, align 8
  %18 = load i64, ptr %5, align 8
  %19 = ashr i64 %18, 16
  %20 = trunc i64 %19 to i32
  ret i32 %20
}

; Function Attrs: nounwind uwtable
define internal i32 @cf2_getWindingMomentum(i32 noundef %0, i32 noundef %1, i32 noundef %2, i32 noundef %3) #0 {
  %5 = alloca i32, align 4
  %6 = alloca i32, align 4
  %7 = alloca i32, align 4
  %8 = alloca i32, align 4
  store i32 %0, ptr %5, align 4
  store i32 %1, ptr %6, align 4
  store i32 %2, ptr %7, align 4
  store i32 %3, ptr %8, align 4
  %9 = load i32, ptr %5, align 4
  %10 = ashr i32 %9, 16
  %11 = load i32, ptr %8, align 4
  %12 = load i32, ptr %6, align 4
  %13 = sub i32 %11, %12
  %14 = ashr i32 %13, 16
  %15 = mul nsw i32 %10, %14
  %16 = load i32, ptr %6, align 4
  %17 = ashr i32 %16, 16
  %18 = load i32, ptr %7, align 4
  %19 = load i32, ptr %5, align 4
  %20 = sub i32 %18, %19
  %21 = ashr i32 %20, 16
  %22 = mul nsw i32 %17, %21
  %23 = sub nsw i32 %15, %22
  ret i32 %23
}

; Function Attrs: nounwind uwtable
define internal void @cf2_glyphpath_computeOffset(ptr noundef %0, i32 noundef %1, i32 noundef %2, i32 noundef %3, i32 noundef %4, ptr noundef %5, ptr noundef %6) #0 {
  %8 = alloca ptr, align 8
  %9 = alloca i32, align 4
  %10 = alloca i32, align 4
  %11 = alloca i32, align 4
  %12 = alloca i32, align 4
  %13 = alloca ptr, align 8
  %14 = alloca ptr, align 8
  %15 = alloca i32, align 4
  %16 = alloca i32, align 4
  store ptr %0, ptr %8, align 8
  store i32 %1, ptr %9, align 4
  store i32 %2, ptr %10, align 4
  store i32 %3, ptr %11, align 4
  store i32 %4, ptr %12, align 4
  store ptr %5, ptr %13, align 8
  store ptr %6, ptr %14, align 8
  %17 = load i32, ptr %11, align 4
  %18 = load i32, ptr %9, align 4
  %19 = sub i32 %17, %18
  store i32 %19, ptr %15, align 4
  %20 = load i32, ptr %12, align 4
  %21 = load i32, ptr %10, align 4
  %22 = sub i32 %20, %21
  store i32 %22, ptr %16, align 4
  %23 = load ptr, ptr %8, align 8
  %24 = getelementptr inbounds %struct.CF2_GlyphPathRec_, ptr %23, i32 0, i32 0
  %25 = load ptr, ptr %24, align 8
  %26 = getelementptr inbounds %struct.CF2_FontRec_, ptr %25, i32 0, i32 27
  %27 = load i8, ptr %26, align 4
  %28 = icmp ne i8 %27, 0
  br i1 %28, label %29, label %34

29:                                               ; preds = %7
  %30 = load i32, ptr %15, align 4
  %31 = sub i32 0, %30
  store i32 %31, ptr %15, align 4
  %32 = load i32, ptr %16, align 4
  %33 = sub i32 0, %32
  store i32 %33, ptr %16, align 4
  br label %34

34:                                               ; preds = %29, %7
  %35 = load ptr, ptr %14, align 8
  store i32 0, ptr %35, align 4
  %36 = load ptr, ptr %13, align 8
  store i32 0, ptr %36, align 4
  %37 = load ptr, ptr %8, align 8
  %38 = getelementptr inbounds %struct.CF2_GlyphPathRec_, ptr %37, i32 0, i32 12
  %39 = load i8, ptr %38, align 2
  %40 = icmp ne i8 %39, 0
  br i1 %40, label %42, label %41

41:                                               ; preds = %34
  br label %222

42:                                               ; preds = %34
  %43 = load ptr, ptr %8, align 8
  %44 = getelementptr inbounds %struct.CF2_GlyphPathRec_, ptr %43, i32 0, i32 1
  %45 = load ptr, ptr %44, align 8
  %46 = getelementptr inbounds %struct.CF2_OutlineCallbacksRec_, ptr %45, i32 0, i32 4
  %47 = load i32, ptr %46, align 8
  %48 = load i32, ptr %9, align 4
  %49 = load i32, ptr %10, align 4
  %50 = load i32, ptr %11, align 4
  %51 = load i32, ptr %12, align 4
  %52 = call i32 @cf2_getWindingMomentum(i32 noundef %48, i32 noundef %49, i32 noundef %50, i32 noundef %51)
  %53 = add i32 %47, %52
  %54 = load ptr, ptr %8, align 8
  %55 = getelementptr inbounds %struct.CF2_GlyphPathRec_, ptr %54, i32 0, i32 1
  %56 = load ptr, ptr %55, align 8
  %57 = getelementptr inbounds %struct.CF2_OutlineCallbacksRec_, ptr %56, i32 0, i32 4
  store i32 %53, ptr %57, align 8
  %58 = load i32, ptr %15, align 4
  %59 = icmp sge i32 %58, 0
  br i1 %59, label %60, label %136

60:                                               ; preds = %42
  %61 = load i32, ptr %16, align 4
  %62 = icmp sge i32 %61, 0
  br i1 %62, label %63, label %98

63:                                               ; preds = %60
  %64 = load i32, ptr %15, align 4
  %65 = load i32, ptr %16, align 4
  %66 = mul i32 2, %65
  %67 = icmp sgt i32 %64, %66
  br i1 %67, label %68, label %71

68:                                               ; preds = %63
  %69 = load ptr, ptr %13, align 8
  store i32 0, ptr %69, align 4
  %70 = load ptr, ptr %14, align 8
  store i32 0, ptr %70, align 4
  br label %97

71:                                               ; preds = %63
  %72 = load i32, ptr %16, align 4
  %73 = load i32, ptr %15, align 4
  %74 = mul i32 2, %73
  %75 = icmp sgt i32 %72, %74
  br i1 %75, label %76, label %85

76:                                               ; preds = %71
  %77 = load ptr, ptr %8, align 8
  %78 = getelementptr inbounds %struct.CF2_GlyphPathRec_, ptr %77, i32 0, i32 19
  %79 = load i32, ptr %78, align 8
  %80 = load ptr, ptr %13, align 8
  store i32 %79, ptr %80, align 4
  %81 = load ptr, ptr %8, align 8
  %82 = getelementptr inbounds %struct.CF2_GlyphPathRec_, ptr %81, i32 0, i32 20
  %83 = load i32, ptr %82, align 4
  %84 = load ptr, ptr %14, align 8
  store i32 %83, ptr %84, align 4
  br label %96

85:                                               ; preds = %71
  %86 = load ptr, ptr %8, align 8
  %87 = getelementptr inbounds %struct.CF2_GlyphPathRec_, ptr %86, i32 0, i32 19
  %88 = load i32, ptr %87, align 8
  %89 = call i32 @FT_MulFix_x86_64(i32 noundef 45875, i32 noundef %88)
  %90 = load ptr, ptr %13, align 8
  store i32 %89, ptr %90, align 4
  %91 = load ptr, ptr %8, align 8
  %92 = getelementptr inbounds %struct.CF2_GlyphPathRec_, ptr %91, i32 0, i32 20
  %93 = load i32, ptr %92, align 4
  %94 = call i32 @FT_MulFix_x86_64(i32 noundef 19661, i32 noundef %93)
  %95 = load ptr, ptr %14, align 8
  store i32 %94, ptr %95, align 4
  br label %96

96:                                               ; preds = %85, %76
  br label %97

97:                                               ; preds = %96, %68
  br label %135

98:                                               ; preds = %60
  %99 = load i32, ptr %15, align 4
  %100 = load i32, ptr %16, align 4
  %101 = mul i32 -2, %100
  %102 = icmp sgt i32 %99, %101
  br i1 %102, label %103, label %106

103:                                              ; preds = %98
  %104 = load ptr, ptr %13, align 8
  store i32 0, ptr %104, align 4
  %105 = load ptr, ptr %14, align 8
  store i32 0, ptr %105, align 4
  br label %134

106:                                              ; preds = %98
  %107 = load i32, ptr %16, align 4
  %108 = sub i32 0, %107
  %109 = load i32, ptr %15, align 4
  %110 = mul i32 2, %109
  %111 = icmp sgt i32 %108, %110
  br i1 %111, label %112, label %122

112:                                              ; preds = %106
  %113 = load ptr, ptr %8, align 8
  %114 = getelementptr inbounds %struct.CF2_GlyphPathRec_, ptr %113, i32 0, i32 19
  %115 = load i32, ptr %114, align 8
  %116 = sub i32 0, %115
  %117 = load ptr, ptr %13, align 8
  store i32 %116, ptr %117, align 4
  %118 = load ptr, ptr %8, align 8
  %119 = getelementptr inbounds %struct.CF2_GlyphPathRec_, ptr %118, i32 0, i32 20
  %120 = load i32, ptr %119, align 4
  %121 = load ptr, ptr %14, align 8
  store i32 %120, ptr %121, align 4
  br label %133

122:                                              ; preds = %106
  %123 = load ptr, ptr %8, align 8
  %124 = getelementptr inbounds %struct.CF2_GlyphPathRec_, ptr %123, i32 0, i32 19
  %125 = load i32, ptr %124, align 8
  %126 = call i32 @FT_MulFix_x86_64(i32 noundef -45874, i32 noundef %125)
  %127 = load ptr, ptr %13, align 8
  store i32 %126, ptr %127, align 4
  %128 = load ptr, ptr %8, align 8
  %129 = getelementptr inbounds %struct.CF2_GlyphPathRec_, ptr %128, i32 0, i32 20
  %130 = load i32, ptr %129, align 4
  %131 = call i32 @FT_MulFix_x86_64(i32 noundef 19661, i32 noundef %130)
  %132 = load ptr, ptr %14, align 8
  store i32 %131, ptr %132, align 4
  br label %133

133:                                              ; preds = %122, %112
  br label %134

134:                                              ; preds = %133, %103
  br label %135

135:                                              ; preds = %134, %97
  br label %222

136:                                              ; preds = %42
  %137 = load i32, ptr %16, align 4
  %138 = icmp sge i32 %137, 0
  br i1 %138, label %139, label %179

139:                                              ; preds = %136
  %140 = load i32, ptr %15, align 4
  %141 = sub i32 0, %140
  %142 = load i32, ptr %16, align 4
  %143 = mul i32 2, %142
  %144 = icmp sgt i32 %141, %143
  br i1 %144, label %145, label %152

145:                                              ; preds = %139
  %146 = load ptr, ptr %13, align 8
  store i32 0, ptr %146, align 4
  %147 = load ptr, ptr %8, align 8
  %148 = getelementptr inbounds %struct.CF2_GlyphPathRec_, ptr %147, i32 0, i32 20
  %149 = load i32, ptr %148, align 4
  %150 = mul i32 2, %149
  %151 = load ptr, ptr %14, align 8
  store i32 %150, ptr %151, align 4
  br label %178

152:                                              ; preds = %139
  %153 = load i32, ptr %16, align 4
  %154 = load i32, ptr %15, align 4
  %155 = mul i32 -2, %154
  %156 = icmp sgt i32 %153, %155
  br i1 %156, label %157, label %166

157:                                              ; preds = %152
  %158 = load ptr, ptr %8, align 8
  %159 = getelementptr inbounds %struct.CF2_GlyphPathRec_, ptr %158, i32 0, i32 19
  %160 = load i32, ptr %159, align 8
  %161 = load ptr, ptr %13, align 8
  store i32 %160, ptr %161, align 4
  %162 = load ptr, ptr %8, align 8
  %163 = getelementptr inbounds %struct.CF2_GlyphPathRec_, ptr %162, i32 0, i32 20
  %164 = load i32, ptr %163, align 4
  %165 = load ptr, ptr %14, align 8
  store i32 %164, ptr %165, align 4
  br label %177

166:                                              ; preds = %152
  %167 = load ptr, ptr %8, align 8
  %168 = getelementptr inbounds %struct.CF2_GlyphPathRec_, ptr %167, i32 0, i32 19
  %169 = load i32, ptr %168, align 8
  %170 = call i32 @FT_MulFix_x86_64(i32 noundef 45875, i32 noundef %169)
  %171 = load ptr, ptr %13, align 8
  store i32 %170, ptr %171, align 4
  %172 = load ptr, ptr %8, align 8
  %173 = getelementptr inbounds %struct.CF2_GlyphPathRec_, ptr %172, i32 0, i32 20
  %174 = load i32, ptr %173, align 4
  %175 = call i32 @FT_MulFix_x86_64(i32 noundef 111411, i32 noundef %174)
  %176 = load ptr, ptr %14, align 8
  store i32 %175, ptr %176, align 4
  br label %177

177:                                              ; preds = %166, %157
  br label %178

178:                                              ; preds = %177, %145
  br label %221

179:                                              ; preds = %136
  %180 = load i32, ptr %15, align 4
  %181 = sub i32 0, %180
  %182 = load i32, ptr %16, align 4
  %183 = mul i32 -2, %182
  %184 = icmp sgt i32 %181, %183
  br i1 %184, label %185, label %192

185:                                              ; preds = %179
  %186 = load ptr, ptr %13, align 8
  store i32 0, ptr %186, align 4
  %187 = load ptr, ptr %8, align 8
  %188 = getelementptr inbounds %struct.CF2_GlyphPathRec_, ptr %187, i32 0, i32 20
  %189 = load i32, ptr %188, align 4
  %190 = mul i32 2, %189
  %191 = load ptr, ptr %14, align 8
  store i32 %190, ptr %191, align 4
  br label %220

192:                                              ; preds = %179
  %193 = load i32, ptr %16, align 4
  %194 = sub i32 0, %193
  %195 = load i32, ptr %15, align 4
  %196 = mul i32 -2, %195
  %197 = icmp sgt i32 %194, %196
  br i1 %197, label %198, label %208

198:                                              ; preds = %192
  %199 = load ptr, ptr %8, align 8
  %200 = getelementptr inbounds %struct.CF2_GlyphPathRec_, ptr %199, i32 0, i32 19
  %201 = load i32, ptr %200, align 8
  %202 = sub i32 0, %201
  %203 = load ptr, ptr %13, align 8
  store i32 %202, ptr %203, align 4
  %204 = load ptr, ptr %8, align 8
  %205 = getelementptr inbounds %struct.CF2_GlyphPathRec_, ptr %204, i32 0, i32 20
  %206 = load i32, ptr %205, align 4
  %207 = load ptr, ptr %14, align 8
  store i32 %206, ptr %207, align 4
  br label %219

208:                                              ; preds = %192
  %209 = load ptr, ptr %8, align 8
  %210 = getelementptr inbounds %struct.CF2_GlyphPathRec_, ptr %209, i32 0, i32 19
  %211 = load i32, ptr %210, align 8
  %212 = call i32 @FT_MulFix_x86_64(i32 noundef -45874, i32 noundef %211)
  %213 = load ptr, ptr %13, align 8
  store i32 %212, ptr %213, align 4
  %214 = load ptr, ptr %8, align 8
  %215 = getelementptr inbounds %struct.CF2_GlyphPathRec_, ptr %214, i32 0, i32 20
  %216 = load i32, ptr %215, align 4
  %217 = call i32 @FT_MulFix_x86_64(i32 noundef 111411, i32 noundef %216)
  %218 = load ptr, ptr %14, align 8
  store i32 %217, ptr %218, align 4
  br label %219

219:                                              ; preds = %208, %198
  br label %220

220:                                              ; preds = %219, %185
  br label %221

221:                                              ; preds = %220, %178
  br label %222

222:                                              ; preds = %221, %135, %41
  ret void
}