; Function Attrs: mustprogress nofree norecurse nosync nounwind willreturn memory(readwrite, inaccessiblemem: none) uwtable
define internal fastcc void @cf2_glyphpath_computeOffset(ptr noundef nonnull readonly captures(none) %0, i32 noundef %1, i32 noundef %2, i32 noundef %3, i32 noundef %4, ptr noundef nonnull writeonly captures(none) initializes((0, 4)) %5, ptr noundef nonnull writeonly captures(none) initializes((0, 4)) %6) unnamed_addr #5 {
  %8 = sub i32 %3, %1
  %9 = sub i32 %4, %2
  %10 = load ptr, ptr %0, align 8
  %11 = getelementptr inbounds nuw i8, ptr %10, i64 308
  %12 = load i8, ptr %11, align 4
  %.not = icmp eq i8 %12, 0
  %13 = sub i32 0, %8
  %14 = sub i32 0, %9
  %.076 = select i1 %.not, i32 %8, i32 %13
  %.0 = select i1 %.not, i32 %9, i32 %14
  store i32 0, ptr %6, align 4
  store i32 0, ptr %5, align 4
  %15 = getelementptr inbounds nuw i8, ptr %0, i64 18658
  %16 = load i8, ptr %15, align 2
  %.not77 = icmp eq i8 %16, 0
  br i1 %.not77, label %161, label %17

17:                                               ; preds = %7
  %18 = getelementptr inbounds nuw i8, ptr %0, i64 8
  %19 = load ptr, ptr %18, align 8
  %20 = getelementptr inbounds nuw i8, ptr %19, i64 32
  %21 = load i32, ptr %20, align 8
  %22 = ashr i32 %1, 16
  %23 = ashr i32 %9, 16
  %24 = mul nsw i32 %23, %22
  %25 = ashr i32 %2, 16
  %26 = ashr i32 %8, 16
  %27 = mul nsw i32 %26, %25
  %28 = sub nsw i32 %24, %27
  %29 = add i32 %28, %21
  store i32 %29, ptr %20, align 8
  %30 = icmp sgt i32 %.076, -1
  %31 = icmp sgt i32 %.0, -1
  br i1 %30, label %32, label %93

32:                                               ; preds = %17
  br i1 %31, label %33, label %62

33:                                               ; preds = %32
  %34 = shl nuw i32 %.0, 1
  %35 = icmp sgt i32 %.076, %34
  br i1 %35, label %36, label %37

36:                                               ; preds = %33
  store i32 0, ptr %5, align 4
  br label %.sink.split

37:                                               ; preds = %33
  %38 = shl nuw i32 %.076, 1
  %39 = icmp sgt i32 %.0, %38
  %40 = getelementptr inbounds nuw i8, ptr %0, i64 18704
  %41 = load i32, ptr %40, align 8
  br i1 %39, label %42, label %45

42:                                               ; preds = %37
  store i32 %41, ptr %5, align 4
  %43 = getelementptr inbounds nuw i8, ptr %0, i64 18708
  %44 = load i32, ptr %43, align 4
  br label %.sink.split

45:                                               ; preds = %37
  %46 = sext i32 %41 to i64
  %47 = mul nsw i64 %46, 45875
  %48 = ashr i64 %47, 63
  %49 = add nsw i64 %47, 32768
  %50 = add nsw i64 %49, %48
  %51 = lshr i64 %50, 16
  %52 = trunc i64 %51 to i32
  store i32 %52, ptr %5, align 4
  %53 = getelementptr inbounds nuw i8, ptr %0, i64 18708
  %54 = load i32, ptr %53, align 4
  %55 = sext i32 %54 to i64
  %56 = mul nsw i64 %55, 19661
  %57 = ashr i64 %56, 63
  %58 = add nsw i64 %56, 32768
  %59 = add nsw i64 %58, %57
  %60 = lshr i64 %59, 16
  %61 = trunc i64 %60 to i32
  br label %.sink.split

62:                                               ; preds = %32
  %63 = mul i32 %.0, -2
  %64 = icmp sgt i32 %.076, %63
  br i1 %64, label %65, label %66

65:                                               ; preds = %62
  store i32 0, ptr %5, align 4
  br label %.sink.split

66:                                               ; preds = %62
  %67 = sub i32 0, %.0
  %68 = shl nuw i32 %.076, 1
  %69 = icmp slt i32 %68, %67
  %70 = getelementptr inbounds nuw i8, ptr %0, i64 18704
  %71 = load i32, ptr %70, align 8
  br i1 %69, label %72, label %76

72:                                               ; preds = %66
  %73 = sub i32 0, %71
  store i32 %73, ptr %5, align 4
  %74 = getelementptr inbounds nuw i8, ptr %0, i64 18708
  %75 = load i32, ptr %74, align 4
  br label %.sink.split

76:                                               ; preds = %66
  %77 = sext i32 %71 to i64
  %78 = mul nsw i64 %77, -45874
  %79 = ashr i64 %78, 63
  %80 = add nsw i64 %78, 32768
  %81 = add nsw i64 %80, %79
  %82 = lshr i64 %81, 16
  %83 = trunc i64 %82 to i32
  store i32 %83, ptr %5, align 4
  %84 = getelementptr inbounds nuw i8, ptr %0, i64 18708
  %85 = load i32, ptr %84, align 4
  %86 = sext i32 %85 to i64
  %87 = mul nsw i64 %86, 19661
  %88 = ashr i64 %87, 63
  %89 = add nsw i64 %87, 32768
  %90 = add nsw i64 %89, %88
  %91 = lshr i64 %90, 16
  %92 = trunc i64 %91 to i32
  br label %.sink.split

93:                                               ; preds = %17
  %94 = sub i32 0, %.076
  br i1 %31, label %95, label %127

95:                                               ; preds = %93
  %96 = shl nuw i32 %.0, 1
  %97 = icmp slt i32 %96, %94
  br i1 %97, label %98, label %102

98:                                               ; preds = %95
  store i32 0, ptr %5, align 4
  %99 = getelementptr inbounds nuw i8, ptr %0, i64 18708
  %100 = load i32, ptr %99, align 4
  %101 = shl i32 %100, 1
  br label %.sink.split

102:                                              ; preds = %95
  %103 = mul i32 %.076, -2
  %104 = icmp sgt i32 %.0, %103
  %105 = getelementptr inbounds nuw i8, ptr %0, i64 18704
  %106 = load i32, ptr %105, align 8
  br i1 %104, label %107, label %110

107:                                              ; preds = %102
  store i32 %106, ptr %5, align 4
  %108 = getelementptr inbounds nuw i8, ptr %0, i64 18708
  %109 = load i32, ptr %108, align 4
  br label %.sink.split

110:                                              ; preds = %102
  %111 = sext i32 %106 to i64
  %112 = mul nsw i64 %111, 45875
  %113 = ashr i64 %112, 63
  %114 = add nsw i64 %112, 32768
  %115 = add nsw i64 %114, %113
  %116 = lshr i64 %115, 16
  %117 = trunc i64 %116 to i32
  store i32 %117, ptr %5, align 4
  %118 = getelementptr inbounds nuw i8, ptr %0, i64 18708
  %119 = load i32, ptr %118, align 4
  %120 = sext i32 %119 to i64
  %121 = mul nsw i64 %120, 111411
  %122 = ashr i64 %121, 63
  %123 = add nsw i64 %121, 32768
  %124 = add nsw i64 %123, %122
  %125 = lshr i64 %124, 16
  %126 = trunc i64 %125 to i32
  br label %.sink.split

127:                                              ; preds = %93
  %128 = mul i32 %.0, -2
  %129 = icmp slt i32 %128, %94
  br i1 %129, label %130, label %134

130:                                              ; preds = %127
  store i32 0, ptr %5, align 4
  %131 = getelementptr inbounds nuw i8, ptr %0, i64 18708
  %132 = load i32, ptr %131, align 4
  %133 = shl i32 %132, 1
  br label %.sink.split

134:                                              ; preds = %127
  %135 = sub i32 0, %.0
  %136 = mul i32 %.076, -2
  %137 = icmp slt i32 %136, %135
  %138 = getelementptr inbounds nuw i8, ptr %0, i64 18704
  %139 = load i32, ptr %138, align 8
  br i1 %137, label %140, label %144

140:                                              ; preds = %134
  %141 = sub i32 0, %139
  store i32 %141, ptr %5, align 4
  %142 = getelementptr inbounds nuw i8, ptr %0, i64 18708
  %143 = load i32, ptr %142, align 4
  br label %.sink.split

144:                                              ; preds = %134
  %145 = sext i32 %139 to i64
  %146 = mul nsw i64 %145, -45874
  %147 = ashr i64 %146, 63
  %148 = add nsw i64 %146, 32768
  %149 = add nsw i64 %148, %147
  %150 = lshr i64 %149, 16
  %151 = trunc i64 %150 to i32
  store i32 %151, ptr %5, align 4
  %152 = getelementptr inbounds nuw i8, ptr %0, i64 18708
  %153 = load i32, ptr %152, align 4
  %154 = sext i32 %153 to i64
  %155 = mul nsw i64 %154, 111411
  %156 = ashr i64 %155, 63
  %157 = add nsw i64 %155, 32768
  %158 = add nsw i64 %157, %156
  %159 = lshr i64 %158, 16
  %160 = trunc i64 %159 to i32
  br label %.sink.split

.sink.split:                                      ; preds = %65, %76, %72, %36, %45, %42, %130, %144, %140, %98, %110, %107
  %.sink = phi i32 [ %109, %107 ], [ %126, %110 ], [ %101, %98 ], [ %143, %140 ], [ %160, %144 ], [ %133, %130 ], [ %44, %42 ], [ %61, %45 ], [ 0, %36 ], [ %75, %72 ], [ %92, %76 ], [ 0, %65 ]
  store i32 %.sink, ptr %6, align 4
  br label %161

161:                                              ; preds = %.sink.split, %7
  ret void
}